target datalayout = "e-m:e-p270:32:32-p271:32:32-p272:64:64-i64:64-i128:128-f80:128-n8:16:32:64-S128"
target triple = "x86_64-pc-linux-gnu"

%struct.Agnode_s = type { %struct.Agobj_s, ptr, %struct.Agsubnode_s }
%struct.Agobj_s = type { %struct.Agtag_s, ptr }
%struct.Agtag_s = type { i32, i64 }
%struct.Agsubnode_s = type { %struct.dtlink_s_, %struct.dtlink_s_, ptr, ptr, ptr, ptr, ptr }
%struct.dtlink_s_ = type { ptr, %union.anon.0 }
%union.anon.0 = type { ptr }
%struct.Agnodeinfo_t = type { %struct.Agrec_s, double, [3 x double] }
%struct.Agrec_s = type { ptr, ptr }

; Function Attrs: nounwind uwtable
define internal i32 @cmpf(ptr noundef %0, ptr noundef %1) #0 {
  %3 = alloca i32, align 4
  %4 = alloca ptr, align 8
  %5 = alloca ptr, align 8
  %6 = alloca ptr, align 8
  %7 = alloca ptr, align 8
  %8 = alloca double, align 8
  %9 = alloca double, align 8
  %10 = alloca i32, align 4
  store ptr %0, ptr %4, align 8, !tbaa !56
  store ptr %1, ptr %5, align 8, !tbaa !56
  call void @llvm.lifetime.start.p0(i64 8, ptr %6) #12
  %11 = load ptr, ptr %4, align 8, !tbaa !56
  store ptr %11, ptr %6, align 8, !tbaa !25
  call void @llvm.lifetime.start.p0(i64 8, ptr %7) #12
  %12 = load ptr, ptr %5, align 8, !tbaa !56
  store ptr %12, ptr %7, align 8, !tbaa !25
  call void @llvm.lifetime.start.p0(i64 8, ptr %8) #12
  %13 = load ptr, ptr %6, align 8, !tbaa !25
  %14 = load ptr, ptr %13, align 8, !tbaa !27
  %15 = getelementptr inbounds nuw %struct.Agnode_s, ptr %14, i32 0, i32 0
  %16 = getelementptr inbounds nuw %struct.Agobj_s, ptr %15, i32 0, i32 1
  %17 = load ptr, ptr %16, align 8, !tbaa !29
  %18 = getelementptr inbounds nuw %struct.Agnodeinfo_t, ptr %17, i32 0, i32 1
  %19 = load double, ptr %18, align 8, !tbaa !37
  store double %19, ptr %8, align 8, !tbaa !18
  call void @llvm.lifetime.start.p0(i64 8, ptr %9) #12
  %20 = load ptr, ptr %7, align 8, !tbaa !25
  %21 = load ptr, ptr %20, align 8, !tbaa !27
  %22 = getelementptr inbounds nuw %struct.Agnode_s, ptr %21, i32 0, i32 0
  %23 = getelementptr inbounds nuw %struct.Agobj_s, ptr %22, i32 0, i32 1
  %24 = load ptr, ptr %23, align 8, !tbaa !29
  %25 = getelementptr inbounds nuw %struct.Agnodeinfo_t, ptr %24, i32 0, i32 1
  %26 = load double, ptr %25, align 8, !tbaa !37
  store double %26, ptr %9, align 8, !tbaa !18
  %27 = load double, ptr %8, align 8, !tbaa !18
  %28 = load double, ptr %9, align 8, !tbaa !18
  %29 = fcmp olt double %27, %28
  br i1 %29, label %30, label %31

30:                                               ; preds = %2
  store i32 -1, ptr %3, align 4
  store i32 1, ptr %10, align 4
  br label %37

31:                                               ; preds = %2
  %32 = load double, ptr %8, align 8, !tbaa !18
  %33 = load double, ptr %9, align 8, !tbaa !18
  %34 = fcmp ogt double %32, %33
  br i1 %34, label %35, label %36

35:                                               ; preds = %31
  store i32 1, ptr %3, align 4
  store i32 1, ptr %10, align 4
  br label %37

36:                                               ; preds = %31
  store i32 0, ptr %3, align 4
  store i32 1, ptr %10, align 4
  br label %37

37:                                               ; preds = %36, %35, %30
  call void @llvm.lifetime.end.p0(i64 8, ptr %9) #12
  call void @llvm.lifetime.end.p0(i64 8, ptr %8) #12
  call void @llvm.lifetime.end.p0(i64 8, ptr %7) #12
  call void @llvm.lifetime.end.p0(i64 8, ptr %6) #12
  %38 = load i32, ptr %3, align 4
  ret i32 %38
}